target datalayout = "e-m:e-p270:32:32-p271:32:32-p272:64:64-i64:64-i128:128-f80:128-n8:16:32:64-S128"
target triple = "x86_64-pc-linux-gnu"

%struct.AVFilterLink = type { ptr, ptr, ptr, ptr, i32, i32, i32, i32, %struct.AVRational, i32, i32, i32, %struct.AVChannelLayout, %struct.AVRational, ptr, i32, %struct.AVFilterFormatsConfig, %struct.AVFilterFormatsConfig }
%struct.AVChannelLayout = type { i32, i32, %union.anon.1, ptr }
%union.anon.1 = type { i64 }
%struct.AVRational = type { i32, i32 }
%struct.AVFilterFormatsConfig = type { ptr, ptr, ptr, ptr, ptr }
%struct.AVFilterContext = type { ptr, ptr, ptr, ptr, ptr, i32, ptr, ptr, i32, ptr, ptr, i32, i32, ptr, ptr, ptr, ptr, i32, ptr, i32, i32 }
%struct.QPContext = type { ptr, ptr, [257 x i8], i32, i32, i32 }

@var_names = internal constant [7 x ptr] [ptr @.str.6, ptr @.str, ptr @.str.7, ptr @.str.8, ptr @.str.9, ptr @.str.10, ptr null], align 16

; Function Attrs: nounwind uwtable
define internal i32 @config_input(ptr noundef %0) #0 {
  %2 = alloca i32, align 4
  %3 = alloca ptr, align 8
  %4 = alloca ptr, align 8
  %5 = alloca ptr, align 8
  %6 = alloca i32, align 4
  %7 = alloca i32, align 4
  %8 = alloca ptr, align 8
  %9 = alloca i32, align 4
  %10 = alloca [7 x double], align 16
  %11 = alloca double, align 8
  store ptr %0, ptr %3, align 8, !tbaa !4
  call void @llvm.lifetime.start.p0(i64 8, ptr %4) #7
  %12 = load ptr, ptr %3, align 8, !tbaa !4
  %13 = getelementptr inbounds nuw %struct.AVFilterLink, ptr %12, i32 0, i32 2
  %14 = load ptr, ptr %13, align 8, !tbaa !11
  store ptr %14, ptr %4, align 8, !tbaa !23
  call void @llvm.lifetime.start.p0(i64 8, ptr %5) #7
  %15 = load ptr, ptr %4, align 8, !tbaa !23
  %16 = getelementptr inbounds nuw %struct.AVFilterContext, ptr %15, i32 0, i32 9
  %17 = load ptr, ptr %16, align 8, !tbaa !34
  store ptr %17, ptr %5, align 8, !tbaa !35
  call void @llvm.lifetime.start.p0(i64 4, ptr %6) #7
  call void @llvm.lifetime.start.p0(i64 4, ptr %7) #7
  call void @llvm.lifetime.start.p0(i64 8, ptr %8) #7
  store ptr null, ptr %8, align 8, !tbaa !69
  %18 = load ptr, ptr %5, align 8, !tbaa !35
  %19 = getelementptr inbounds nuw %struct.QPContext, ptr %18, i32 0, i32 1
  %20 = load ptr, ptr %19, align 8, !tbaa !40
  %21 = icmp ne ptr %20, null
  br i1 %21, label %23, label %22

22:                                               ; preds = %1
  store i32 0, ptr %2, align 4
  store i32 1, ptr %9, align 4
  br label %114

23:                                               ; preds = %1
  %24 = load ptr, ptr %5, align 8, !tbaa !35
  %25 = getelementptr inbounds nuw %struct.QPContext, ptr %24, i32 0, i32 1
  %26 = load ptr, ptr %25, align 8, !tbaa !40
  %27 = load ptr, ptr %4, align 8, !tbaa !23
  %28 = call i32 @av_expr_parse(ptr noundef %8, ptr noundef %26, ptr noundef @var_names, ptr noundef null, ptr noundef null, ptr noundef null, ptr noundef null, i32 noundef 0, ptr noundef %27)
  store i32 %28, ptr %7, align 4, !tbaa !56
  %29 = load i32, ptr %7, align 4, !tbaa !56
  %30 = icmp slt i32 %29, 0
  br i1 %30, label %31, label %33

31:                                               ; preds = %23
  %32 = load i32, ptr %7, align 4, !tbaa !56
  store i32 %32, ptr %2, align 4
  store i32 1, ptr %9, align 4
  br label %114

33:                                               ; preds = %23
  %34 = load ptr, ptr %3, align 8, !tbaa !4
  %35 = getelementptr inbounds nuw %struct.AVFilterLink, ptr %34, i32 0, i32 7
  %36 = load i32, ptr %35, align 4, !tbaa !71
  %37 = add nsw i32 %36, 15
  %38 = ashr i32 %37, 4
  %39 = load ptr, ptr %5, align 8, !tbaa !35
  %40 = getelementptr inbounds nuw %struct.QPContext, ptr %39, i32 0, i32 3
  store i32 %38, ptr %40, align 4, !tbaa !53
  %41 = load ptr, ptr %3, align 8, !tbaa !4
  %42 = getelementptr inbounds nuw %struct.AVFilterLink, ptr %41, i32 0, i32 6
  %43 = load i32, ptr %42, align 8, !tbaa !72
  %44 = add nsw i32 %43, 15
  %45 = ashr i32 %44, 4
  %46 = load ptr, ptr %5, align 8, !tbaa !35
  %47 = getelementptr inbounds nuw %struct.QPContext, ptr %46, i32 0, i32 4
  store i32 %45, ptr %47, align 8, !tbaa !54
  store i32 -129, ptr %6, align 4, !tbaa !56
  br label %48

48:                                               ; preds = %109, %33
  %49 = load i32, ptr %6, align 4, !tbaa !56
  %50 = icmp slt i32 %49, 128
  br i1 %50, label %51, label %112

51:                                               ; preds = %48
  call void @llvm.lifetime.start.p0(i64 56, ptr %10) #7
  %52 = load i32, ptr %6, align 4, !tbaa !56
  %53 = icmp ne i32 %52, -129
  %54 = zext i1 %53 to i32
  %55 = sitofp i32 %54 to double
  store double %55, ptr %10, align 8, !tbaa !62
  %56 = getelementptr inbounds double, ptr %10, i64 1
  %57 = load i32, ptr %6, align 4, !tbaa !56
  %58 = sitofp i32 %57 to double
  store double %58, ptr %56, align 8, !tbaa !62
  %59 = getelementptr inbounds double, ptr %10, i64 2
  store double 0x7FF8000000000000, ptr %59, align 8, !tbaa !62
  %60 = getelementptr inbounds double, ptr %10, i64 3
  store double 0x7FF8000000000000, ptr %60, align 8, !tbaa !62
  %61 = getelementptr inbounds double, ptr %10, i64 4
  %62 = load ptr, ptr %5, align 8, !tbaa !35
  %63 = getelementptr inbounds nuw %struct.QPContext, ptr %62, i32 0, i32 4
  %64 = load i32, ptr %63, align 8, !tbaa !54
  %65 = sitofp i32 %64 to double
  store double %65, ptr %61, align 8, !tbaa !62
  %66 = getelementptr inbounds double, ptr %10, i64 5
  %67 = load ptr, ptr %5, align 8, !tbaa !35
  %68 = getelementptr inbounds nuw %struct.QPContext, ptr %67, i32 0, i32 3
  %69 = load i32, ptr %68, align 4, !tbaa !53
  %70 = sitofp i32 %69 to double
  store double %70, ptr %66, align 8, !tbaa !62
  %71 = getelementptr inbounds double, ptr %10, i64 6
  store double 0.000000e+00, ptr %71, align 8, !tbaa !62
  call void @llvm.lifetime.start.p0(i64 8, ptr %11) #7
  %72 = load ptr, ptr %8, align 8, !tbaa !69
  %73 = getelementptr inbounds [7 x double], ptr %10, i64 0, i64 0
  %74 = call nsz double @av_expr_eval(ptr noundef %72, ptr noundef %73, ptr noundef null)
  store double %74, ptr %11, align 8, !tbaa !62
  %75 = load double, ptr %11, align 8, !tbaa !62
  %76 = call i1 @llvm.is.fpclass.f64(double %75, i32 3)
  br i1 %76, label %77, label %95

77:                                               ; preds = %51
  %78 = load ptr, ptr %5, align 8, !tbaa !35
  %79 = getelementptr inbounds nuw %struct.QPContext, ptr %78, i32 0, i32 1
  %80 = load ptr, ptr %79, align 8, !tbaa !40
  %81 = call ptr @strchr(ptr noundef %80, i32 noundef 120) #8
  %82 = icmp ne ptr %81, null
  br i1 %82, label %89, label %83

83:                                               ; preds = %77
  %84 = load ptr, ptr %5, align 8, !tbaa !35
  %85 = getelementptr inbounds nuw %struct.QPContext, ptr %84, i32 0, i32 1
  %86 = load ptr, ptr %85, align 8, !tbaa !40
  %87 = call ptr @strchr(ptr noundef %86, i32 noundef 121) #8
  %88 = icmp ne ptr %87, null
  br i1 %88, label %89, label %92

89:                                               ; preds = %83, %77
  %90 = load ptr, ptr %5, align 8, !tbaa !35
  %91 = getelementptr inbounds nuw %struct.QPContext, ptr %90, i32 0, i32 5
  store i32 1, ptr %91, align 4, !tbaa !57
  br label %94

92:                                               ; preds = %83
  %93 = load ptr, ptr %8, align 8, !tbaa !69
  call void @av_expr_free(ptr noundef %93)
  store i32 -22, ptr %2, align 4
  store i32 1, ptr %9, align 4
  br label %106

94:                                               ; preds = %89
  br label %95

95:                                               ; preds = %94, %51
  %96 = load double, ptr %11, align 8, !tbaa !62
  %97 = fptrunc nsz double %96 to float
  %98 = call i64 @llvm.lrint.i64.f32(float %97)
  %99 = trunc i64 %98 to i8
  %100 = load ptr, ptr %5, align 8, !tbaa !35
  %101 = getelementptr inbounds nuw %struct.QPContext, ptr %100, i32 0, i32 2
  %102 = load i32, ptr %6, align 4, !tbaa !56
  %103 = add nsw i32 %102, 129
  %104 = sext i32 %103 to i64
  %105 = getelementptr inbounds [257 x i8], ptr %101, i64 0, i64 %104
  store i8 %99, ptr %105, align 1, !tbaa !39
  store i32 0, ptr %9, align 4
  br label %106

106:                                              ; preds = %95, %92
  call void @llvm.lifetime.end.p0(i64 8, ptr %11) #7
  call void @llvm.lifetime.end.p0(i64 56, ptr %10) #7
  %107 = load i32, ptr %9, align 4
  switch i32 %107, label %114 [
    i32 0, label %108
  ]

108:                                              ; preds = %106
  br label %109

109:                                              ; preds = %108
  %110 = load i32, ptr %6, align 4, !tbaa !56
  %111 = add nsw i32 %110, 1
  store i32 %111, ptr %6, align 4, !tbaa !56
  br label %48, !llvm.loop !73

112:                                              ; preds = %48
  %113 = load ptr, ptr %8, align 8, !tbaa !69
  call void @av_expr_free(ptr noundef %113)
  store i32 0, ptr %2, align 4
  store i32 1, ptr %9, align 4
  br label %114

114:                                              ; preds = %112, %106, %31, %22
  call void @llvm.lifetime.end.p0(i64 8, ptr %8) #7
  call void @llvm.lifetime.end.p0(i64 4, ptr %7) #7
  call void @llvm.lifetime.end.p0(i64 4, ptr %6) #7
  call void @llvm.lifetime.end.p0(i64 8, ptr %5) #7
  call void @llvm.lifetime.end.p0(i64 8, ptr %4) #7
  %115 = load i32, ptr %2, align 4
  ret i32 %115
}