; Function Attrs: nounwind uwtable
define internal range(i32 -2147483648, 1) i32 @config_input(ptr noundef readonly captures(none) %0) #0 {
  %2 = alloca ptr, align 8
  %3 = alloca [7 x double], align 16
  %4 = getelementptr inbounds nuw i8, ptr %0, i64 16
  %5 = load ptr, ptr %4, align 8, !tbaa !9
  %6 = getelementptr inbounds nuw i8, ptr %5, i64 72
  %7 = load ptr, ptr %6, align 8, !tbaa !33
  call void @llvm.lifetime.start.p0(i64 8, ptr nonnull %2) #6
  store ptr null, ptr %2, align 8, !tbaa !62
  %8 = getelementptr inbounds nuw i8, ptr %7, i64 8
  %9 = load ptr, ptr %8, align 8, !tbaa !34
  %.not = icmp eq ptr %9, null
  br i1 %.not, label %59, label %10

10:                                               ; preds = %1
  %11 = call i32 @av_expr_parse(ptr noundef nonnull %2, ptr noundef nonnull %9, ptr noundef nonnull @var_names, ptr noundef null, ptr noundef null, ptr noundef null, ptr noundef null, i32 noundef 0, ptr noundef nonnull %5) #6
  %12 = icmp slt i32 %11, 0
  br i1 %12, label %59, label %13

13:                                               ; preds = %10
  %14 = getelementptr inbounds nuw i8, ptr %0, i64 44
  %15 = load i32, ptr %14, align 4, !tbaa !64
  %16 = add nsw i32 %15, 15
  %17 = ashr i32 %16, 4
  %18 = getelementptr inbounds nuw i8, ptr %7, i64 276
  store i32 %17, ptr %18, align 4, !tbaa !45
  %19 = getelementptr inbounds nuw i8, ptr %0, i64 40
  %20 = load i32, ptr %19, align 8, !tbaa !65
  %21 = add nsw i32 %20, 15
  %22 = ashr i32 %21, 4
  %23 = getelementptr inbounds nuw i8, ptr %7, i64 280
  store i32 %22, ptr %23, align 8, !tbaa !46
  %24 = getelementptr inbounds nuw i8, ptr %3, i64 8
  %25 = getelementptr inbounds nuw i8, ptr %3, i64 16
  %26 = getelementptr inbounds nuw i8, ptr %3, i64 24
  %27 = getelementptr inbounds nuw i8, ptr %3, i64 32
  %28 = getelementptr inbounds nuw i8, ptr %3, i64 40
  %29 = getelementptr inbounds nuw i8, ptr %3, i64 48
  %30 = getelementptr inbounds nuw i8, ptr %7, i64 284
  %31 = getelementptr inbounds nuw i8, ptr %7, i64 16
  br label %32

32:                                               ; preds = %13, %.critedge
  %indvars.iv = phi i64 [ -129, %13 ], [ %indvars.iv.next, %.critedge ]
  call void @llvm.lifetime.start.p0(i64 56, ptr nonnull %3) #6
  %33 = icmp ne i64 %indvars.iv, -129
  %34 = uitofp i1 %33 to double
  store double %34, ptr %3, align 16, !tbaa !53
  %35 = trunc nsw i64 %indvars.iv to i32
  %36 = sitofp i32 %35 to double
  store double %36, ptr %24, align 8, !tbaa !53
  store double 0x7FF8000000000000, ptr %25, align 16, !tbaa !53
  store double 0x7FF8000000000000, ptr %26, align 8, !tbaa !53
  %37 = load i32, ptr %23, align 8, !tbaa !46
  %38 = sitofp i32 %37 to double
  store double %38, ptr %27, align 16, !tbaa !53
  %39 = load i32, ptr %18, align 4, !tbaa !45
  %40 = sitofp i32 %39 to double
  store double %40, ptr %28, align 8, !tbaa !53
  store double 0.000000e+00, ptr %29, align 16, !tbaa !53
  %41 = load ptr, ptr %2, align 8, !tbaa !62
  %42 = call nsz double @av_expr_eval(ptr noundef %41, ptr noundef nonnull %3, ptr noundef null) #6
  %43 = fcmp uno double %42, 0.000000e+00
  br i1 %43, label %44, label %.critedge

44:                                               ; preds = %32
  %45 = load ptr, ptr %8, align 8, !tbaa !34
  %46 = call ptr @strchr(ptr noundef nonnull dereferenceable(1) %45, i32 noundef 120) #8
  %.not29 = icmp eq ptr %46, null
  br i1 %.not29, label %47, label %49

47:                                               ; preds = %44
  %48 = call ptr @strchr(ptr noundef nonnull dereferenceable(1) %45, i32 noundef 121) #8
  %.not30 = icmp eq ptr %48, null
  br i1 %.not30, label %50, label %49

49:                                               ; preds = %47, %44
  store i32 1, ptr %30, align 4, !tbaa !48
  br label %.critedge

50:                                               ; preds = %47
  %51 = load ptr, ptr %2, align 8, !tbaa !62
  call void @av_expr_free(ptr noundef %51) #6
  call void @llvm.lifetime.end.p0(i64 56, ptr nonnull %3) #6
  br label %59

.critedge:                                        ; preds = %49, %32
  %52 = fptrunc nsz double %42 to float
  %53 = call i64 @llvm.lrint.i64.f32(float %52)
  %54 = trunc i64 %53 to i8
  %55 = add nsw i64 %indvars.iv, 129
  %56 = getelementptr inbounds [257 x i8], ptr %31, i64 0, i64 %55
  store i8 %54, ptr %56, align 1, !tbaa !59
  call void @llvm.lifetime.end.p0(i64 56, ptr nonnull %3) #6
  %indvars.iv.next = add nsw i64 %indvars.iv, 1
  %exitcond.not = icmp eq i64 %indvars.iv.next, 128
  br i1 %exitcond.not, label %57, label %32, !llvm.loop !66

57:                                               ; preds = %.critedge
  %58 = load ptr, ptr %2, align 8, !tbaa !62
  call void @av_expr_free(ptr noundef %58) #6
  br label %59

59:                                               ; preds = %50, %10, %1, %57
  %.0 = phi i32 [ -22, %50 ], [ 0, %57 ], [ 0, %1 ], [ %11, %10 ]
  call void @llvm.lifetime.end.p0(i64 8, ptr nonnull %2) #6
  ret i32 %.0
}